; Function Attrs: mustprogress nounwind uwtable
define dso_local i64 @_ZNK5clang16ObjCPropertyDecl12getUsageTypeENS_8QualTypeE(ptr noundef nonnull align 8 dereferenceable(128) %0, i64 %1) local_unnamed_addr #0 align 2 {
  %3 = getelementptr inbounds nuw i8, ptr %0, i64 16
  %.0.copyload.i.i.i.i.i.i.i.i.i.i.i = load i64, ptr %3, align 8
  %4 = and i64 %.0.copyload.i.i.i.i.i.i.i.i.i.i.i, 4
  %5 = icmp eq i64 %4, 0
  %6 = and i64 %.0.copyload.i.i.i.i.i.i.i.i.i.i.i, -8
  %7 = inttoptr i64 %6 to ptr
  br i1 %5, label %_ZNK5clang4Decl14getDeclContextEv.exit, label %8

8:                                                ; preds = %2
  %9 = load ptr, ptr %7, align 8
  br label %_ZNK5clang4Decl14getDeclContextEv.exit

_ZNK5clang4Decl14getDeclContextEv.exit:           ; preds = %2, %8
  %.0.i.i = phi ptr [ %9, %8 ], [ %7, %2 ]
  %10 = getelementptr inbounds nuw i8, ptr %0, i64 56
  %11 = tail call i64 @_ZNK5clang8QualType19substObjCMemberTypeES0_PKNS_11DeclContextENS_23ObjCSubstitutionContextE(ptr noundef nonnull align 8 dereferenceable(8) %10, i64 %1, ptr noundef %.0.i.i, i32 noundef 3) #23
  ret i64 %11
}